target datalayout = "e-m:e-p270:32:32-p271:32:32-p272:64:64-i64:64-i128:128-f80:128-n8:16:32:64-S128"
target triple = "x86_64-unknown-linux-gnu"

%struct.grpc_tcp_listener = type { i32, ptr, ptr, %struct.grpc_resolved_address, i32, i32, i32, %struct.grpc_closure, %struct.grpc_closure, ptr, ptr, i32, %struct.grpc_closure, %struct.grpc_timer, i64 }
%struct.grpc_resolved_address = type { [128 x i8], i32 }
%struct.grpc_closure = type { %union.anon, ptr, ptr, %union.anon.0 }
%union.anon = type { ptr }
%union.anon.0 = type { i64 }
%struct.grpc_timer = type { i64, i32, i8, ptr, ptr, ptr, %union.anon.1 }
%union.anon.1 = type { %"struct.grpc_event_engine::experimental::EventEngine::TaskHandle" }
%"struct.grpc_event_engine::experimental::EventEngine::TaskHandle" = type { [2 x i64] }
%"class.absl::lts_20230802::Status" = type { i64 }

; Function Attrs: mustprogress nounwind uwtable
define linkonce_odr noundef i64 @_ZN4absl12lts_202308026Status16CodeToInlinedRepENS0_10StatusCodeE(i32 noundef %code) #5 comdat align 2 {
entry:
  %code.addr = alloca i32, align 4
  store i32 %code, ptr %code.addr, align 4
  %0 = load i32, ptr %code.addr, align 4
  %conv = sext i32 %0 to i64
  %shl = shl i64 %conv, 2
  ret i64 %shl
}

; Function Attrs: mustprogress uwtable
define linkonce_odr noundef zeroext i1 @_ZNK4absl12lts_202308026Status2okEv(ptr noundef nonnull align 8 dereferenceable(8) %this) #4 comdat align 2 {
entry:
  %this.addr = alloca ptr, align 8
  store ptr %this, ptr %this.addr, align 8
  %this1 = load ptr, ptr %this.addr, align 8
  %rep_ = getelementptr inbounds %"class.absl::lts_20230802::Status", ptr %this1, i32 0, i32 0
  %0 = load i64, ptr %rep_, align 8
  %call = call noundef i64 @_ZN4absl12lts_202308026Status16CodeToInlinedRepENS0_10StatusCodeE(i32 noundef 0)
  %cmp = icmp eq i64 %0, %call
  ret i1 %cmp
}

; Function Attrs: mustprogress uwtable
define internal void @_ZL23listener_retry_timer_cbPvN4absl12lts_202308026StatusE(ptr noundef %arg, ptr noundef %err) #4 {
entry:
  %arg.addr = alloca ptr, align 8
  %err.indirect_addr = alloca ptr, align 8
  %listener = alloca ptr, align 8
  %.atomictmp = alloca i64, align 8
  store ptr %arg, ptr %arg.addr, align 8
  store ptr %err, ptr %err.indirect_addr, align 8
  %call = call noundef zeroext i1 @_ZNK4absl12lts_202308026Status2okEv(ptr noundef nonnull align 8 dereferenceable(8) %err)
  br i1 %call, label %if.end, label %if.then

if.then:                                          ; preds = %entry
  br label %if.end4

if.end:                                           ; preds = %entry
  %0 = load ptr, ptr %arg.addr, align 8
  store ptr %0, ptr %listener, align 8
  %1 = load ptr, ptr %listener, align 8
  %retry_timer_armed = getelementptr inbounds %struct.grpc_tcp_listener, ptr %1, i32 0, i32 14
  store i64 0, ptr %.atomictmp, align 8
  %2 = load i64, ptr %.atomictmp, align 8
  store atomic i64 %2, ptr %retry_timer_armed monotonic, align 8
  %3 = load ptr, ptr %listener, align 8
  %emfd = getelementptr inbounds %struct.grpc_tcp_listener, ptr %3, i32 0, i32 1
  %4 = load ptr, ptr %emfd, align 8
  %call1 = call noundef zeroext i1 @_Z19grpc_fd_is_shutdownP7grpc_fd(ptr noundef %4)
  br i1 %call1, label %if.end4, label %if.then2

if.then2:                                         ; preds = %if.end
  %5 = load ptr, ptr %listener, align 8
  %emfd3 = getelementptr inbounds %struct.grpc_tcp_listener, ptr %5, i32 0, i32 1
  %6 = load ptr, ptr %emfd3, align 8
  call void @_Z20grpc_fd_set_readableP7grpc_fd(ptr noundef %6)
  br label %if.end4

if.end4:                                          ; preds = %if.then2, %if.end, %if.then
  ret void
}