; Function Attrs: mustprogress uwtable
define internal void @_ZL23listener_retry_timer_cbPvN4absl12lts_202308026StatusE(ptr nocapture noundef %arg, ptr nocapture noundef readonly %err) #3 {
entry:
  %0 = load i64, ptr %err, align 8
  %cmp.i = icmp eq i64 %0, 0
  br i1 %cmp.i, label %if.end, label %if.end4

if.end:                                           ; preds = %entry
  %retry_timer_armed = getelementptr inbounds i8, ptr %arg, i64 344
  store atomic i64 0, ptr %retry_timer_armed monotonic, align 8
  %emfd = getelementptr inbounds i8, ptr %arg, i64 8
  %1 = load ptr, ptr %emfd, align 8
  %call1 = tail call noundef zeroext i1 @_Z19grpc_fd_is_shutdownP7grpc_fd(ptr noundef %1)
  br i1 %call1, label %if.end4, label %if.then2

if.then2:                                         ; preds = %if.end
  %2 = load ptr, ptr %emfd, align 8
  tail call void @_Z20grpc_fd_set_readableP7grpc_fd(ptr noundef %2)
  br label %if.end4

if.end4:                                          ; preds = %entry, %if.then2, %if.end
  ret void
}